; Function Attrs: nounwind uwtable
define range(i32 0, 2) i32 @X509_print_ex_fp(ptr noundef %0, ptr noundef %1, i64 noundef %2, i64 noundef %3) local_unnamed_addr #0 {
  %5 = tail call ptr @BIO_s_file() #4
  %6 = tail call ptr @BIO_new(ptr noundef %5) #4
  %7 = icmp eq ptr %6, null
  br i1 %7, label %8, label %9

8:                                                ; preds = %4
  tail call void @ERR_new() #4
  tail call void @ERR_set_debug(ptr noundef nonnull @.str, i32 noundef 38, ptr noundef nonnull @__func__.X509_print_ex_fp) #4
  tail call void (i32, i32, ptr, ...) @ERR_set_error(i32 noundef 11, i32 noundef 524295, ptr noundef null) #4
  br label %13

9:                                                ; preds = %4
  %10 = tail call i64 @BIO_ctrl(ptr noundef nonnull %6, i32 noundef 106, i64 noundef 0, ptr noundef %0) #4
  %11 = tail call i32 @X509_print_ex(ptr noundef nonnull %6, ptr noundef %1, i64 noundef %2, i64 noundef %3)
  %12 = tail call i32 @BIO_free(ptr noundef nonnull %6) #4
  br label %13

13:                                               ; preds = %9, %8
  %.0 = phi i32 [ 0, %8 ], [ %11, %9 ]
  ret i32 %.0
}